(dp0
L4318538512L
(lp1
(dp2
VparticipantId
p3
I1
sVplayer
p4
(dp5
VplatformId
p6
VEUW1
p7
sVaccountId
p8
VEykVQycJufwQyRq_DDnOVusu0APRvF62rPhd2ZEeOJbjwjw
p9
sVsummonerName
p10
VDeltaOxytar
p11
sVsummonerId
p12
VG1gKlTSYf3CsYeIsmLbeOxAtT-b_UiKsz9JfjYZPaAas9-Q
p13
sVcurrentPlatformId
p14
VEUW1
p15
sVcurrentAccountId
p16
VEykVQycJufwQyRq_DDnOVusu0APRvF62rPhd2ZEeOJbjwjw
p17
sVmatchHistoryUri
p18
V/v1/stats/player_history/EUW1/217018127
p19
sVprofileIcon
p20
I4291
sVhero
p21
(dp22
Vversion
p23
V9.23.1
p24
sVid
p25
VVladimir
p26
sVkey
p27
V8
p28
sVname
p29
VVladimir
p30
sVtitle
p31
Vthe Crimson Reaper
p32
sVblurb
p33
VA fiend with a thirst for mortal blood, Vladimir has influenced the affairs of Noxus since the empire's earliest days. In addition to unnaturally extending his life, his mastery of hemomancy allows him to control the minds and bodies of others as easily...
p34
sVinfo
p35
(dp36
Vattack
p37
I2
sVdefense
p38
I6
sVmagic
p39
I8
sVdifficulty
p40
I7
ssVimage
p41
(dp42
Vfull
p43
VVladimir.png
p44
sVsprite
p45
Vchampion4.png
p46
sVgroup
p47
Vchampion
p48
sVx
p49
I48
sVy
p50
I48
sVw
p51
I48
sVh
p52
I48
ssVtags
p53
(lp54
VMage
p55
asVpartype
p56
VCrimson Rush
p57
sVstats
p58
(dp59
Vhp
p60
I537
sVhpperlevel
p61
I96
sVmp
p62
I2
sVmpperlevel
p63
I0
sVmovespeed
p64
I330
sVarmor
p65
I23
sVarmorperlevel
p66
F3.3
sVspellblock
p67
I30
sVspellblockperlevel
p68
F0.5
sVattackrange
p69
I450
sVhpregen
p70
I7
sVhpregenperlevel
p71
F0.6
sVmpregen
p72
I0
sVmpregenperlevel
p73
I0
sVcrit
p74
I0
sVcritperlevel
p75
I0
sVattackdamage
p76
I55
sVattackdamageperlevel
p77
I3
sVattackspeedperlevel
p78
I2
sVattackspeed
p79
F0.658
ssssa(dp80
g3
I2
sg4
(dp81
g6
VEUW1
p82
sg8
VqCwAL281GQyPyZYxfnCEqcE5kKEikjw4EuyvfnoTCleGd1U
p83
sg10
VTennshi
p84
sg12
VFvAmS_nE_kAY9i0L2zhrinxJu67LvaFkdJj-sUrEhPiyxwo
p85
sg14
VEUW1
p86
sg16
VqCwAL281GQyPyZYxfnCEqcE5kKEikjw4EuyvfnoTCleGd1U
p87
sg18
V/v1/stats/player_history/EUW1/211753461
p88
sg20
I687
sg21
(dp89
g23
V9.23.1
p90
sg25
VJinx
p91
sg27
V222
p92
sg29
VJinx
p93
sg31
Vthe Loose Cannon
p94
sg33
VA manic and impulsive criminal from Zaun, Jinx lives to wreak havoc without care for the consequences. With an arsenal of deadly weapons, she unleashes the loudest blasts and brightest explosions to leave a trail of mayhem and panic in her wake. Jinx...
p95
sg35
(dp96
g37
I9
sg38
I2
sg39
I4
sg40
I6
ssg41
(dp97
g43
VJinx.png
p98
sg45
Vchampion1.png
p99
sg47
Vchampion
p100
sg49
I288
sg50
I48
sg51
I48
sg52
I48
ssg53
(lp101
VMarksman
p102
asg56
VMana
p103
sg58
(dp104
g60
I581
sg61
I84
sg62
I245
sg63
I45
sg64
I325
sg65
I28
sg66
F3.5
sg67
I30
sg68
F0.5
sg69
I525
sg70
F3.75
sg71
F0.5
sg72
F6.7
sg73
I1
sg74
I0
sg75
I0
sg76
I57
sg77
F3.4
sg78
I1
sg79
F0.625
ssssa(dp105
g3
I3
sg4
(dp106
g6
VEUW1
p107
sg8
VO3P0y47NS533TuuuYp6jWuIPB_YLIHg7MwI9zB6v67vWKQ
p108
sg10
VMariosky11
p109
sg12
VvQHS_BKRJGE_xzBlxJMj_FmW3jGLgTLXGzL0rCbUKmWFJ2w
p110
sg14
VEUW1
p111
sg16
VO3P0y47NS533TuuuYp6jWuIPB_YLIHg7MwI9zB6v67vWKQ
p112
sg18
V/v1/stats/player_history/EUW1/36078535
p113
sg20
I502
sg21
(dp114
g23
V9.23.1
p115
sg25
VZed
p116
sg27
V238
p117
sg29
VZed
p118
sg31
Vthe Master of Shadows
p119
sg33
VUtterly ruthless and without mercy, Zed is the leader of the Order of Shadow, an organization he created with the intent of militarizing Ionia's magical and martial traditions to drive out Noxian invaders. During the war, desperation led him to unlock...
p120
sg35
(dp121
g37
I9
sg38
I2
sg39
I1
sg40
I7
ssg41
(dp122
g43
VZed.png
p123
sg45
Vchampion4.png
p124
sg47
Vchampion
p125
sg49
I48
sg50
I96
sg51
I48
sg52
I48
ssg53
(lp126
VAssassin
p127
asg56
VEnergy
p128
sg58
(dp129
g60
I584
sg61
I85
sg62
I200
sg63
I0
sg64
I345
sg65
I32
sg66
F3.5
sg67
F32.1
sg68
F1.25
sg69
I125
sg70
I7
sg71
F0.65
sg72
I50
sg73
I0
sg74
I0
sg75
I0
sg76
I63
sg77
F3.4
sg78
F3.3
sg79
F0.651
ssssa(dp130
g3
I4
sg4
(dp131
g6
VEUW1
p132
sg8
VI_r8DnbZXW1J33a_Fc_mxgdNjxAdel5A_OBjPjmqNBIj1Q
p133
sg10
VFnatic
p134
sg12
V5pSlCVBt9iBDtKsEhprXz56bbl-4JDFgZVhyMkfAELvcGUM
p135
sg14
VEUW1
p136
sg16
VI_r8DnbZXW1J33a_Fc_mxgdNjxAdel5A_OBjPjmqNBIj1Q
p137
sg18
V/v1/stats/player_history/EUW1/31118622
p138
sg20
I582
sg21
(dp139
g23
V9.23.1
p140
sg25
VOrianna
p141
sg27
V61
p142
sg29
VOrianna
p143
sg31
Vthe Lady of Clockwork
p144
sg33
VOnce a curious girl of flesh and blood, Orianna is now a technological marvel comprised entirely of clockwork. She became gravely ill after an accident in the lower districts of Zaun, and her failing body had to be replaced with exquisite artifice...
p145
sg35
(dp146
g37
I4
sg38
I3
sg39
I9
sg40
I7
ssg41
(dp147
g43
VOrianna.png
p148
sg45
Vchampion2.png
p149
sg47
Vchampion
p150
sg49
I144
sg50
I96
sg51
I48
sg52
I48
ssg53
(lp151
VMage
p152
aVSupport
p153
asg56
VMana
p154
sg58
(dp155
g60
I530
sg61
I91
sg62
I418
sg63
I25
sg64
I325
sg65
F17.04
sg66
I3
sg67
I26
sg68
F0.5
sg69
I525
sg70
I7
sg71
F0.55
sg72
I8
sg73
F0.8
sg74
I0
sg75
I0
sg76
F40.368
sg77
F2.6
sg78
F3.5
sg79
F0.658
ssssa(dp156
g3
I5
sg4
(dp157
g6
VEUW1
p158
sg8
VyWVB8agZ9sCcLrPypNf8FsuuTTfIOK6zjfVYxdO14iIrog
p159
sg10
VStonesZ
p160
sg12
VEkuPxX3A4Dh_a4ypSoQNHnv6S2j0CpKO-I7SGOrvLChNKec
p161
sg14
VEUW1
p162
sg16
VyWVB8agZ9sCcLrPypNf8FsuuTTfIOK6zjfVYxdO14iIrog
p163
sg18
V/v1/stats/player_history/EUW1/31926048
p164
sg20
I3151
sg21
(dp165
g23
V9.23.1
p166
sg25
VVeigar
p167
sg27
V45
p168
sg29
VVeigar
p169
sg31
Vthe Tiny Master of Evil
p170
sg33
VAn enthusiastic master of dark sorcery, Veigar has embraced powers that few mortals dare approach. As a free-spirited inhabitant of Bandle City, he longed to push beyond the limitations of yordle magic, and turned instead to arcane texts that had been...
p171
sg35
(dp172
g37
I2
sg38
I2
sg39
I10
sg40
I7
ssg41
(dp173
g43
VVeigar.png
p174
sg45
Vchampion4.png
p175
sg47
Vchampion
p176
sg49
I336
sg50
I0
sg51
I48
sg52
I48
ssg53
(lp177
VMage
p178
asg56
VMana
p179
sg58
(dp180
g60
I505
sg61
I94
sg62
I490
sg63
I26
sg64
I340
sg65
F22.55
sg66
F3.75
sg67
I30
sg68
F0.5
sg69
I550
sg70
F6.5
sg71
F0.6
sg72
I8
sg73
F0.8
sg74
I0
sg75
I0
sg76
F50.71
sg77
F2.625
sg78
F2.24
sg79
F0.625
ssssa(dp181
g3
I6
sg4
(dp182
g6
VEUW1
p183
sg8
VV7x-smAs85o51Dn_XNVebnn1ucjkkDNrTfw356Y4kK2oicw
p184
sg10
VLH Roku
p185
sg12
VcrQ8VednB1plyN5f5cED5H0astxXGvc97cFQS8puz5Ay7dU
p186
sg14
VEUW1
p187
sg16
VV7x-smAs85o51Dn_XNVebnn1ucjkkDNrTfw356Y4kK2oicw
p188
sg18
V/v1/stats/player_history/EUW1/201178640
p189
sg20
I4217
sg21
(dp190
g23
V9.23.1
p191
sg25
VOrnn
p192
sg27
V516
p193
sg29
VOrnn
p194
sg31
VThe Fire below the Mountain
p195
sg33
VOrnn is the Freljordian spirit of forging and craftsmanship. He works in the solitude of a massive smithy, hammered out from the lava caverns beneath the volcano Hearth-Home. There he stokes bubbling cauldrons of molten rock to purify ores and fashion...
p196
sg35
(dp197
g37
I5
sg38
I9
sg39
I3
sg40
I5
ssg41
(dp198
g43
VOrnn.png
p199
sg45
Vchampion2.png
p200
sg47
Vchampion
p201
sg49
I192
sg50
I96
sg51
I48
sg52
I48
ssg53
(lp202
VTank
p203
aVFighter
p204
asg56
VMana
p205
sg58
(dp206
g60
I590
sg61
I95
sg62
F340.6
sg63
I45
sg64
I335
sg65
I36
sg66
I4
sg67
F32.1
sg68
F1.25
sg69
I175
sg70
I9
sg71
F0.9
sg72
F8.01
sg73
F0.6
sg74
I0
sg75
I0
sg76
I69
sg77
F3.5
sg78
I2
sg79
F0.625
ssssa(dp207
g3
I7
sg4
(dp208
g6
VEUW1
p209
sg8
Vy_49RoWKA270FLmgnvnD_5fXYncC9smephFlJkQPXNVfM3g
p210
sg10
VLotusInTheDark
p211
sg12
VD5mCj7-8xzWPidEuwzt3lfZQTowEM-0hS37yWmBzK9alLTw
p212
sg14
VEUW1
p213
sg16
Vy_49RoWKA270FLmgnvnD_5fXYncC9smephFlJkQPXNVfM3g
p214
sg18
V/v1/stats/player_history/EUW1/223688538
p215
sg20
I4462
sg21
(dp216
g23
V9.23.1
p217
sg25
VVarus
p218
sg27
V110
p219
sg29
VVarus
p220
sg31
Vthe Arrow of Retribution
p221
sg33
VOne of the ancient darkin, Varus was a deadly killer who loved to torment his foes, driving them almost to insanity before delivering the killing arrow. He was imprisoned at the end of the Great Darkin War, but escaped centuries later in the remade...
p222
sg35
(dp223
g37
I7
sg38
I3
sg39
I4
sg40
I2
ssg41
(dp224
g43
VVarus.png
p225
sg45
Vchampion4.png
p226
sg47
Vchampion
p227
sg49
I240
sg50
I0
sg51
I48
sg52
I48
ssg53
(lp228
VMarksman
p229
aVMage
p230
asg56
VMana
p231
sg58
(dp232
g60
I500
sg61
I89
sg62
I360
sg63
I33
sg64
I330
sg65
I27
sg66
F3.4
sg67
I30
sg68
F0.5
sg69
I575
sg70
F3.5
sg71
F0.55
sg72
I8
sg73
F0.8
sg74
I0
sg75
I0
sg76
I61
sg77
F3.11
sg78
I3
sg79
F0.658
ssssa(dp233
g3
I8
sg4
(dp234
g6
VEUW1
p235
sg8
VsdsiBDAaBnTXd-5MTQ90x7Ng6N8CpH5_GYIyb2o8nF9QxZo
p236
sg10
VScary Melody
p237
sg12
VF1wnO7p9bn1wi-Obe473n7Jhd0rHp7luDL86I8sniGkp5rk
p238
sg14
VEUW1
p239
sg16
VsdsiBDAaBnTXd-5MTQ90x7Ng6N8CpH5_GYIyb2o8nF9QxZo
p240
sg18
V/v1/stats/player_history/EUW1/201550602
p241
sg20
I4389
sg21
(dp242
g23
V9.23.1
p243
sg25
VCamille
p244
sg27
V164
p245
sg29
VCamille
p246
sg31
Vthe Steel Shadow
p247
sg33
VWeaponized to operate outside the boundaries of the law, Camille is the Principal Intelligencer of Clan Ferros\u2014an elegant and elite agent who ensures the Piltover machine and its Zaunite underbelly runs smoothly. Adaptable and precise, she views sloppy...
p248
sg35
(dp249
g37
I8
sg38
I6
sg39
I3
sg40
I4
ssg41
(dp250
g43
VCamille.png
p251
sg45
Vchampion0.png
p252
sg47
Vchampion
p253
sg49
I240
sg50
I48
sg51
I48
sg52
I48
ssg53
(lp254
VFighter
p255
aVTank
p256
asg56
VMana
p257
sg58
(dp258
g60
F575.6
sg61
I85
sg62
F338.8
sg63
I32
sg64
I340
sg65
I35
sg66
F3.8
sg67
F32.1
sg68
F1.25
sg69
I125
sg70
F8.5
sg71
F0.8
sg72
F8.15
sg73
F0.75
sg74
I0
sg75
I0
sg76
I68
sg77
F3.5
sg78
F2.5
sg79
F0.644
ssssa(dp259
g3
I9
sg4
(dp260
g6
VEUW1
p261
sg8
VehkGLfNgmMe9j0pRmv0y8yq5MQWyCgCVpux6pbUPS_DR4ds
p262
sg10
VScary Zoe
p263
sg12
VAezhf1QsOfCEMUdnNV6nuF0BAbOB3MgepcMg7HWD3emdKS8
p264
sg14
VEUW1
p265
sg16
VehkGLfNgmMe9j0pRmv0y8yq5MQWyCgCVpux6pbUPS_DR4ds
p266
sg18
V/v1/stats/player_history/EUW1/221067046
p267
sg20
I3591
sg21
(dp268
g23
V9.23.1
p269
sg25
VKatarina
p270
sg27
V55
p271
sg29
VKatarina
p272
sg31
Vthe Sinister Blade
p273
sg33
VDecisive in judgment and lethal in combat, Katarina is a Noxian assassin of the highest caliber. Eldest daughter to the legendary General Du Couteau, she made her talents known with swift kills against unsuspecting enemies. Her fiery ambition has driven...
p274
sg35
(dp275
g37
I4
sg38
I3
sg39
I9
sg40
I8
ssg41
(dp276
g43
VKatarina.png
p277
sg45
Vchampion1.png
p278
sg47
Vchampion
p279
sg49
I96
sg50
I96
sg51
I48
sg52
I48
ssg53
(lp280
VAssassin
p281
aVMage
p282
asg56
VNone
p283
sg58
(dp284
g60
I602
sg61
I94
sg62
I0
sg63
I0
sg64
I340
sg65
F27.88
sg66
F3.5
sg67
F32.1
sg68
F1.25
sg69
I125
sg70
F7.5
sg71
F0.7
sg72
I0
sg73
I0
sg74
I0
sg75
I0
sg76
I58
sg77
F3.2
sg78
F2.74
sg79
F0.658
ssssa(dp285
g3
I10
sg4
(dp286
g6
VEUN1
p287
sg8
VgfO04N_v7Aca2t_deTLlsaUN0UNm8NsrpW7wrtYs39U-Vw
p288
sg10
VShe Charmed Me
p289
sg12
Vn8FJUO-_VG3c8AosBVg03dqKWACmTin0yKvErfBj_xhl9_w
p290
sg14
VEUW1
p291
sg16
Vx7mKDBqMSrLdcmeDDV6Slkjt7cTSEcNxBW6CnjFRpJ76hCs
p292
sg18
V/v1/stats/player_history/EUN1/35375915
p293
sg20
I4072
sg21
(dp294
g23
V9.23.1
p295
sg25
VKennen
p296
sg27
V85
p297
sg29
VKennen
p298
sg31
Vthe Heart of the Tempest
p299
sg33
VMore than just the lightning-quick enforcer of Ionian balance, Kennen is the only yordle member of the Kinkou. Despite his small, furry stature, he is eager to take on any threat with a whirling storm of shuriken and boundless enthusiasm. Alongside his...
p300
sg35
(dp301
g37
I6
sg38
I4
sg39
I7
sg40
I4
ssg41
(dp302
g43
VKennen.png
p303
sg45
Vchampion1.png
p304
sg47
Vchampion
p305
sg49
I240
sg50
I96
sg51
I48
sg52
I48
ssg53
(lp306
VMage
p307
aVMarksman
p308
asg56
VEnergy
p309
sg58
(dp310
g60
I541
sg61
I84
sg62
I200
sg63
I0
sg64
I335
sg65
I29
sg66
F3.75
sg67
I30
sg68
F0.5
sg69
I550
sg70
F5.5
sg71
F0.65
sg72
I50
sg73
I0
sg74
I0
sg75
I0
sg76
I48
sg77
F3.75
sg78
F3.4
sg79
F0.625
ssssasL4318493298L
(lp311
(dp312
VparticipantId
p313
I1
sVplayer
p314
(dp315
VplatformId
p316
VEUW1
p317
sVaccountId
p318
VFrdBiwRYgiN1Z4pVTY3qJhge-EDxvekTZwLd6fJo2S4P1g
p319
sVsummonerName
p320
VMikrowelle Bot
p321
sVsummonerId
p322
V9BQvtxqTzuByCEpO3B9nzwKPm4SJdgTy6duPwD1kLTOBIk0
p323
sVcurrentPlatformId
p324
VEUW1
p325
sVcurrentAccountId
p326
VFrdBiwRYgiN1Z4pVTY3qJhge-EDxvekTZwLd6fJo2S4P1g
p327
sVmatchHistoryUri
p328
V/v1/stats/player_history/EUW1/34660002
p329
sVprofileIcon
p330
I0
sg21
(dp331
Vversion
p332
V9.23.1
p333
sVid
p334
VChogath
p335
sVkey
p336
V31
p337
sVname
p338
VCho'Gath
p339
sVtitle
p340
Vthe Terror of the Void
p341
sVblurb
p342
VFrom the moment Cho'Gath first emerged into the harsh light of Runeterra's sun, the beast was driven by the most pure and insatiable hunger. A perfect expression of the Void's desire to consume all life, Cho'Gath's complex biology quickly converts...
p343
sVinfo
p344
(dp345
Vattack
p346
I3
sVdefense
p347
I7
sVmagic
p348
I7
sVdifficulty
p349
I5
ssVimage
p350
(dp351
Vfull
p352
VChogath.png
p353
sVsprite
p354
Vchampion0.png
p355
sVgroup
p356
Vchampion
p357
sg49
I336
sg50
I48
sg51
I48
sg52
I48
ssVtags
p358
(lp359
VTank
p360
aVMage
p361
asVpartype
p362
VMana
p363
sVstats
p364
(dp365
Vhp
p366
F574.4
sVhpperlevel
p367
I80
sVmp
p368
F272.2
sVmpperlevel
p369
I40
sVmovespeed
p370
I345
sVarmor
p371
I38
sVarmorperlevel
p372
F3.5
sVspellblock
p373
F32.1
sVspellblockperlevel
p374
F1.25
sVattackrange
p375
I125
sVhpregen
p376
I9
sVhpregenperlevel
p377
F0.85
sVmpregen
p378
F7.206
sVmpregenperlevel
p379
F0.45
sVcrit
p380
I0
sVcritperlevel
p381
I0
sVattackdamage
p382
I69
sVattackdamageperlevel
p383
F4.2
sVattackspeedperlevel
p384
F1.44
sVattackspeed
p385
F0.625
ssssa(dp386
g313
I2
sg314
(dp387
g316
VEUW1
p388
sg318
VZHyZKv_2XA42cFAJQsZ4BiAcHxqhZOBArAOaBcsbgi3Pb0M
p389
sg320
VQikea
p390
sg322
VDkh9POLaWTpa3j3uHUF_4azOO73fEjWmXoW8NKLpskEdQ3E
p391
sg324
VEUW1
p392
sg326
VZHyZKv_2XA42cFAJQsZ4BiAcHxqhZOBArAOaBcsbgi3Pb0M
p393
sg328
V/v1/stats/player_history/EUW1/230181865
p394
sg330
I4378
sg21
(dp395
g332
V9.23.1
p396
sg334
VVayne
p397
sg336
V67
p398
sg338
VVayne
p399
sg340
Vthe Night Hunter
p400
sg342
VShauna Vayne is a deadly, remorseless Demacian monster hunter, who has dedicated her life to finding and destroying the demon that murdered her family. Armed with a wrist-mounted crossbow and a heart full of vengeance, she is only truly happy when...
p401
sg344
(dp402
g346
I10
sg347
I1
sg348
I1
sg349
I8
ssg350
(dp403
g352
VVayne.png
p404
sg354
Vchampion4.png
p405
sg356
Vchampion
p406
sg49
I288
sg50
I0
sg51
I48
sg52
I48
ssg358
(lp407
VMarksman
p408
aVAssassin
p409
asg362
VMana
p410
sg364
(dp411
g366
I515
sg367
I89
sg368
F231.8
sg369
I35
sg370
I330
sg371
I23
sg372
F3.4
sg373
I30
sg374
F0.5
sg375
I550
sg376
F3.5
sg377
F0.55
sg378
F6.972
sg379
F0.4
sg380
I0
sg381
I0
sg382
I60
sg383
F2.36
sg384
F3.3
sg385
F0.658
ssssa(dp412
g313
I3
sg314
(dp413
g316
VEUW1
p414
sg318
VOxrhIMQHVzLNEQnoowduB6kcEt7Ls-C8e7nftru3NGIaEf4
p415
sg320
VLunachenFWY
p416
sg322
VHaHLuBdXMDCKTFUbBJEDDPH5wdkVu4cxdT5l4xjey5yfBOID
p417
sg324
VEUW1
p418
sg326
VOxrhIMQHVzLNEQnoowduB6kcEt7Ls-C8e7nftru3NGIaEf4
p419
sg328
V/v1/stats/player_history/EUW1/238114808
p420
sg330
I4379
sg21
(dp421
g332
V9.23.1
p422
sg334
VLeblanc
p423
sg336
V7
p424
sg338
VLeBlanc
p425
sg340
Vthe Deceiver
p426
sg342
VMysterious even to other members of the Black Rose cabal, LeBlanc is but one of many names for a pale woman who has manipulated people and events since the earliest days of Noxus. Using her magic to mirror herself, the sorceress can appear to anyone...
p427
sg344
(dp428
g346
I1
sg347
I4
sg348
I10
sg349
I9
ssg350
(dp429
g352
VLeblanc.png
p430
sg354
Vchampion2.png
p431
sg356
Vchampion
p432
sg49
I0
sg50
I0
sg51
I48
sg52
I48
ssg358
(lp433
VAssassin
p434
aVMage
p435
asg362
VMana
p436
sg364
(dp437
g366
I528
sg367
I92
sg368
I334
sg369
I50
sg370
I340
sg371
F21.88
sg372
F3.5
sg373
I30
sg374
F0.5
sg375
I525
sg376
F7.5
sg377
F0.55
sg378
I6
sg379
F0.8
sg380
I0
sg381
I0
sg382
F54.88
sg383
F3.5
sg384
F1.4
sg385
F0.625
ssssa(dp438
g313
I4
sg314
(dp439
g316
VEUW1
p440
sg318
VbgJeLwnbP-L6rBz9btoozTIudEeHE0eqzhgWB28ZdcKA66A
p441
sg320
VItalian cannon
p442
sg322
VH_0DdVqaIht4Rjhuz0DWrKjI_F8ZZXVpO8aoANg7fyPbZqw
p443
sg324
VEUW1
p444
sg326
VbgJeLwnbP-L6rBz9btoozTIudEeHE0eqzhgWB28ZdcKA66A
p445
sg328
V/v1/stats/player_history/EUW1/232221145
p446
sg330
I3789
sg21
(dp447
g332
V9.23.1
p448
sg334
VAatrox
p449
sg336
V266
p450
sg338
VAatrox
p451
sg340
Vthe Darkin Blade
p452
sg342
VOnce honored defenders of Shurima against the Void, Aatrox and his brethren would eventually become an even greater threat to Runeterra, and were defeated only by cunning mortal sorcery. But after centuries of imprisonment, Aatrox was the first to find...
p453
sg344
(dp454
g346
I8
sg347
I4
sg348
I3
sg349
I4
ssg350
(dp455
g352
VAatrox.png
p456
sg354
Vchampion0.png
p457
sg356
Vchampion
p458
sg49
I0
sg50
I0
sg51
I48
sg52
I48
ssg358
(lp459
VFighter
p460
aVTank
p461
asg362
VBlood Well
p462
sg364
(dp463
g366
I580
sg367
I90
sg368
I0
sg369
I0
sg370
I345
sg371
I38
sg372
F3.25
sg373
F32.1
sg374
F1.25
sg375
I175
sg376
I3
sg377
I1
sg378
I0
sg379
I0
sg380
I0
sg381
I0
sg382
I60
sg383
I5
sg384
F2.5
sg385
F0.651
ssssa(dp464
g313
I5
sg314
(dp465
g316
VEUW1
p466
sg318
VEMyWQW6nx87SwjF4d6FSs4b-k5ixE5IJJj17wLSTlAqTETs
p467
sg320
Vdhkahkg
p468
sg322
VbsZTNIGFvIAGB_1dmrMUR2y5nlV4dOXCOCsB0Dl6XgLnbZG8
p469
sg324
VEUW1
p470
sg326
VEMyWQW6nx87SwjF4d6FSs4b-k5ixE5IJJj17wLSTlAqTETs
p471
sg328
V/v1/stats/player_history/EUW1/235512368
p472
sg330
I4379
sg21
(dp473
g332
V9.23.1
p474
sg334
VAzir
p475
sg336
V268
p476
sg338
VAzir
p477
sg340
Vthe Emperor of the Sands
p478
sg342
VAzir was a mortal emperor of Shurima in a far distant age, a proud man who stood at the cusp of immortality. His hubris saw him betrayed and murdered at the moment of his greatest triumph, but now, millennia later, he has been reborn as an Ascended...
p479
sg344
(dp480
g346
I6
sg347
I3
sg348
I8
sg349
I9
ssg350
(dp481
g352
VAzir.png
p482
sg354
Vchampion0.png
p483
sg356
Vchampion
p484
sg49
I432
sg50
I0
sg51
I48
sg52
I48
ssg358
(lp485
VMage
p486
aVMarksman
p487
asg362
VMana
p488
sg364
(dp489
g366
I552
sg367
I92
sg368
I438
sg369
I21
sg370
I335
sg371
F19.04
sg372
I3
sg373
I30
sg374
F0.5
sg375
I525
sg376
I7
sg377
F0.75
sg378
I8
sg379
F0.8
sg380
I0
sg381
I0
sg382
I52
sg383
F2.8
sg384
I3
sg385
F0.625
ssssa(dp490
g313
I6
sg314
(dp491
g316
VEUW1
p492
sg318
VI_r8DnbZXW1J33a_Fc_mxgdNjxAdel5A_OBjPjmqNBIj1Q
p493
sg320
VFnatic
p494
sg322
V5pSlCVBt9iBDtKsEhprXz56bbl-4JDFgZVhyMkfAELvcGUM
p495
sg324
VEUW1
p496
sg326
VI_r8DnbZXW1J33a_Fc_mxgdNjxAdel5A_OBjPjmqNBIj1Q
p497
sg328
V/v1/stats/player_history/EUW1/31118622
p498
sg330
I582
sg21
(dp499
g332
V9.23.1
p500
sg334
VAshe
p501
sg336
V22
p502
sg338
VAshe
p503
sg340
Vthe Frost Archer
p504
sg342
VIceborn warmother of the Avarosan tribe, Ashe commands the most populous horde in the north. Stoic, intelligent, and idealistic, yet uncomfortable with her role as leader, she taps into the ancestral magics of her lineage to wield a bow of True Ice...
p505
sg344
(dp506
g346
I7
sg347
I3
sg348
I2
sg349
I4
ssg350
(dp507
g352
VAshe.png
p508
sg354
Vchampion0.png
p509
sg356
Vchampion
p510
sg49
I336
sg50
I0
sg51
I48
sg52
I48
ssg358
(lp511
VMarksman
p512
aVSupport
p513
asg362
VMana
p514
sg364
(dp515
g366
I539
sg367
I85
sg368
I280
sg369
I32
sg370
I325
sg371
I26
sg372
F3.4
sg373
I30
sg374
F0.5
sg375
I600
sg376
F3.5
sg377
F0.55
sg378
F6.972
sg379
F0.4
sg380
I0
sg381
I0
sg382
I61
sg383
F2.96
sg384
F3.33
sg385
F0.658
ssssa(dp516
g313
I7
sg314
(dp517
g316
VEUW1
p518
sg318
VyWVB8agZ9sCcLrPypNf8FsuuTTfIOK6zjfVYxdO14iIrog
p519
sg320
VStonesZ
p520
sg322
VEkuPxX3A4Dh_a4ypSoQNHnv6S2j0CpKO-I7SGOrvLChNKec
p521
sg324
VEUW1
p522
sg326
VyWVB8agZ9sCcLrPypNf8FsuuTTfIOK6zjfVYxdO14iIrog
p523
sg328
V/v1/stats/player_history/EUW1/31926048
p524
sg330
I3151
sg21
(dp525
g332
V9.23.1
p526
sg334
VMorgana
p527
sg336
V25
p528
sg338
VMorgana
p529
sg340
Vthe Fallen
p530
sg342
VConflicted between her celestial and mortal natures, Morgana bound her wings to embrace humanity, and inflicts her pain and bitterness upon the dishonest and the corrupt. She rejects laws and traditions she believes are unjust, and fights for truth from...
p531
sg344
(dp532
g346
I1
sg347
I6
sg348
I8
sg349
I1
ssg350
(dp533
g352
VMorgana.png
p534
sg354
Vchampion2.png
p535
sg356
Vchampion
p536
sg49
I192
sg50
I48
sg51
I48
sg52
I48
ssg358
(lp537
VMage
p538
aVSupport
p539
asg362
VMana
p540
sg364
(dp541
g366
I560
sg367
I90
sg368
I340
sg369
I60
sg370
I330
sg371
I25
sg372
F3.8
sg373
I30
sg374
F0.5
sg375
I450
sg376
F5.5
sg377
F0.4
sg378
I11
sg379
F0.4
sg380
I0
sg381
I0
sg382
I56
sg383
F3.5
sg384
F1.53
sg385
F0.625
ssssa(dp542
g313
I8
sg314
(dp543
g316
VEUW1
p544
sg318
VGfqLy6zzn43XvVHlMCAK9QTfnorBfQotYmT0I3b4VQZBDy8
p545
sg320
VBrokenMatt
p546
sg322
VL8UiBTK7W7zG-5iQrgqPHdy1YDQoaLL6gXnhA-0Dsqn9KLA
p547
sg324
VEUW1
p548
sg326
VGfqLy6zzn43XvVHlMCAK9QTfnorBfQotYmT0I3b4VQZBDy8
p549
sg328
V/v1/stats/player_history/EUW1/201561370
p550
sg330
I13
sg21
(dp551
g332
V9.23.1
p552
sg334
VCamille
p553
sg336
V164
p554
sg338
VCamille
p555
sg340
Vthe Steel Shadow
p556
sg342
VWeaponized to operate outside the boundaries of the law, Camille is the Principal Intelligencer of Clan Ferros\u2014an elegant and elite agent who ensures the Piltover machine and its Zaunite underbelly runs smoothly. Adaptable and precise, she views sloppy...
p557
sg344
(dp558
g346
I8
sg347
I6
sg348
I3
sg349
I4
ssg350
(dp559
g352
VCamille.png
p560
sg354
Vchampion0.png
p561
sg356
Vchampion
p562
sg49
I240
sg50
I48
sg51
I48
sg52
I48
ssg358
(lp563
VFighter
p564
aVTank
p565
asg362
VMana
p566
sg364
(dp567
g366
F575.6
sg367
I85
sg368
F338.8
sg369
I32
sg370
I340
sg371
I35
sg372
F3.8
sg373
F32.1
sg374
F1.25
sg375
I125
sg376
F8.5
sg377
F0.8
sg378
F8.15
sg379
F0.75
sg380
I0
sg381
I0
sg382
I68
sg383
F3.5
sg384
F2.5
sg385
F0.644
ssssa(dp568
g313
I9
sg314
(dp569
g316
VNA1
p570
sg318
VfLSU4Z-x5b-Fl7VtLhmcmNweWzwmMgciWyZMIh4eZInMOg
p571
sg320
VRtuun
p572
sg322
VRFc_K7_4GC3KQmFrQdTvJppm0MJ1RzBpU3lYaFb9DhLN9i69
p573
sg324
VEUW1
p574
sg326
Vi2vJsJL4EDT2FqH98VESo5g4_JS2qjJ9Vamivvasuln5CZk
p575
sg328
V/v1/stats/player_history/NA1/45067667
p576
sg330
I4241
sg21
(dp577
g332
V9.23.1
p578
sg334
VKled
p579
sg336
V240
p580
sg338
VKled
p581
sg340
Vthe Cantankerous Cavalier
p582
sg342
VA warrior as fearless as he is ornery, the yordle Kled embodies the furious bravado of Noxus. He is an icon beloved by the empire's soldiers, distrusted by its officers, and loathed by the nobility. Many claim Kled has fought in every campaign the...
p583
sg344
(dp584
g346
I8
sg347
I2
sg348
I2
sg349
I7
ssg350
(dp585
g352
VKled.png
p586
sg354
Vchampion1.png
p587
sg356
Vchampion
p588
sg49
I384
sg50
I96
sg51
I48
sg52
I48
ssg358
(lp589
VFighter
p590
aVTank
p591
asg362
VCourage
p592
sg364
(dp593
g366
I340
sg367
I70
sg368
I100
sg369
I0
sg370
I345
sg371
I35
sg372
I4
sg373
F32.1
sg374
F1.25
sg375
I125
sg376
I6
sg377
F0.75
sg378
I0
sg379
I0
sg380
I0
sg381
I0
sg382
I65
sg383
F3.5
sg384
F3.5
sg385
F0.625
ssssa(dp594
g313
I10
sg314
(dp595
g316
VEUW1
p596
sg318
VFIrXYOGjOGMHnxp3TPoNx4oEUfiCQxvb3R5I0d00h08oNA
p597
sg320
VMelarinx
p598
sg322
VgOdsFlUS92QrR-forEzuX_jneCjmJJoErwXOb8j7HMGkecw
p599
sg324
VEUW1
p600
sg326
VFIrXYOGjOGMHnxp3TPoNx4oEUfiCQxvb3R5I0d00h08oNA
p601
sg328
V/v1/stats/player_history/EUW1/37747014
p602
sg330
I2087
sg21
(dp603
g332
V9.23.1
p604
sg334
VViktor
p605
sg336
V112
p606
sg338
VViktor
p607
sg340
Vthe Machine Herald
p608
sg342
VThe herald of a new age of technology, Viktor has devoted his life to the advancement of humankind. An idealist who seeks to lift the people of Zaun to a new level of understanding, he believes that only by embracing a glorious evolution of technology...
p609
sg344
(dp610
g346
I2
sg347
I4
sg348
I10
sg349
I9
ssg350
(dp611
g352
VViktor.png
p612
sg354
Vchampion4.png
p613
sg356
Vchampion
p614
sg49
I0
sg50
I48
sg51
I48
sg52
I48
ssg358
(lp615
VMage
p616
asg362
VMana
p617
sg364
(dp618
g366
I530
sg367
I90
sg368
I405
sg369
I25
sg370
I335
sg371
I23
sg372
I4
sg373
I30
sg374
F0.5
sg375
I525
sg376
I8
sg377
F0.65
sg378
I8
sg379
F0.8
sg380
I0
sg381
I0
sg382
I53
sg383
I3
sg384
F2.11
sg385
F0.658
ssssas.