(dp0
L4318538512L
(lp1
(dp2
VparticipantId
p3
I1
sVplayer
p4
(dp5
VplatformId
p6
VEUW1
p7
sVaccountId
p8
VEykVQycJufwQyRq_DDnOVusu0APRvF62rPhd2ZEeOJbjwjw
p9
sVsummonerName
p10
VDeltaOxytar
p11
sVsummonerId
p12
VG1gKlTSYf3CsYeIsmLbeOxAtT-b_UiKsz9JfjYZPaAas9-Q
p13
sVcurrentPlatformId
p14
VEUW1
p15
sVcurrentAccountId
p16
VEykVQycJufwQyRq_DDnOVusu0APRvF62rPhd2ZEeOJbjwjw
p17
sVmatchHistoryUri
p18
V/v1/stats/player_history/EUW1/217018127
p19
sVprofileIcon
p20
I4291
sVhero
p21
(dp22
Vversion
p23
V9.23.1
p24
sVid
p25
VVladimir
p26
sVkey
p27
V8
p28
sVname
p29
VVladimir
p30
sVtitle
p31
Vthe Crimson Reaper
p32
sVblurb
p33
VA fiend with a thirst for mortal blood, Vladimir has influenced the affairs of Noxus since the empire's earliest days. In addition to unnaturally extending his life, his mastery of hemomancy allows him to control the minds and bodies of others as easily...
p34
sVinfo
p35
(dp36
Vattack
p37
I2
sVdefense
p38
I6
sVmagic
p39
I8
sVdifficulty
p40
I7
ssVimage
p41
(dp42
Vfull
p43
VVladimir.png
p44
sVsprite
p45
Vchampion4.png
p46
sVgroup
p47
Vchampion
p48
sVx
p49
I48
sVy
p50
I48
sVw
p51
I48
sVh
p52
I48
ssVtags
p53
(lp54
VMage
p55
asVpartype
p56
VCrimson Rush
p57
sVstats
p58
(dp59
Vhp
p60
I537
sVhpperlevel
p61
I96
sVmp
p62
I2
sVmpperlevel
p63
I0
sVmovespeed
p64
I330
sVarmor
p65
I23
sVarmorperlevel
p66
F3.3
sVspellblock
p67
I30
sVspellblockperlevel
p68
F0.5
sVattackrange
p69
I450
sVhpregen
p70
I7
sVhpregenperlevel
p71
F0.6
sVmpregen
p72
I0
sVmpregenperlevel
p73
I0
sVcrit
p74
I0
sVcritperlevel
p75
I0
sVattackdamage
p76
I55
sVattackdamageperlevel
p77
I3
sVattackspeedperlevel
p78
I2
sVattackspeed
p79
F0.658
ssssa(dp80
g3
I2
sg4
(dp81
g6
VEUW1
p82
sg8
VqCwAL281GQyPyZYxfnCEqcE5kKEikjw4EuyvfnoTCleGd1U
p83
sg10
VTennshi
p84
sg12
VFvAmS_nE_kAY9i0L2zhrinxJu67LvaFkdJj-sUrEhPiyxwo
p85
sg14
VEUW1
p86
sg16
VqCwAL281GQyPyZYxfnCEqcE5kKEikjw4EuyvfnoTCleGd1U
p87
sg18
V/v1/stats/player_history/EUW1/211753461
p88
sg20
I687
sg21
(dp89
g23
V9.23.1
p90
sg25
VJinx
p91
sg27
V222
p92
sg29
VJinx
p93
sg31
Vthe Loose Cannon
p94
sg33
VA manic and impulsive criminal from Zaun, Jinx lives to wreak havoc without care for the consequences. With an arsenal of deadly weapons, she unleashes the loudest blasts and brightest explosions to leave a trail of mayhem and panic in her wake. Jinx...
p95
sg35
(dp96
g37
I9
sg38
I2
sg39
I4
sg40
I6
ssg41
(dp97
g43
VJinx.png
p98
sg45
Vchampion1.png
p99
sg47
Vchampion
p100
sg49
I288
sg50
I48
sg51
I48
sg52
I48
ssg53
(lp101
VMarksman
p102
asg56
VMana
p103
sg58
(dp104
g60
I581
sg61
I84
sg62
I245
sg63
I45
sg64
I325
sg65
I28
sg66
F3.5
sg67
I30
sg68
F0.5
sg69
I525
sg70
F3.75
sg71
F0.5
sg72
F6.7
sg73
I1
sg74
I0
sg75
I0
sg76
I57
sg77
F3.4
sg78
I1
sg79
F0.625
ssssa(dp105
g3
I3
sg4
(dp106
g6
VEUW1
p107
sg8
VO3P0y47NS533TuuuYp6jWuIPB_YLIHg7MwI9zB6v67vWKQ
p108
sg10
VMariosky11
p109
sg12
VvQHS_BKRJGE_xzBlxJMj_FmW3jGLgTLXGzL0rCbUKmWFJ2w
p110
sg14
VEUW1
p111
sg16
VO3P0y47NS533TuuuYp6jWuIPB_YLIHg7MwI9zB6v67vWKQ
p112
sg18
V/v1/stats/player_history/EUW1/36078535
p113
sg20
I502
sg21
(dp114
g23
V9.23.1
p115
sg25
VZed
p116
sg27
V238
p117
sg29
VZed
p118
sg31
Vthe Master of Shadows
p119
sg33
VUtterly ruthless and without mercy, Zed is the leader of the Order of Shadow, an organization he created with the intent of militarizing Ionia's magical and martial traditions to drive out Noxian invaders. During the war, desperation led him to unlock...
p120
sg35
(dp121
g37
I9
sg38
I2
sg39
I1
sg40
I7
ssg41
(dp122
g43
VZed.png
p123
sg45
Vchampion4.png
p124
sg47
Vchampion
p125
sg49
I48
sg50
I96
sg51
I48
sg52
I48
ssg53
(lp126
VAssassin
p127
asg56
VEnergy
p128
sg58
(dp129
g60
I584
sg61
I85
sg62
I200
sg63
I0
sg64
I345
sg65
I32
sg66
F3.5
sg67
F32.1
sg68
F1.25
sg69
I125
sg70
I7
sg71
F0.65
sg72
I50
sg73
I0
sg74
I0
sg75
I0
sg76
I63
sg77
F3.4
sg78
F3.3
sg79
F0.651
ssssa(dp130
g3
I4
sg4
(dp131
g6
VEUW1
p132
sg8
VI_r8DnbZXW1J33a_Fc_mxgdNjxAdel5A_OBjPjmqNBIj1Q
p133
sg10
VFnatic
p134
sg12
V5pSlCVBt9iBDtKsEhprXz56bbl-4JDFgZVhyMkfAELvcGUM
p135
sg14
VEUW1
p136
sg16
VI_r8DnbZXW1J33a_Fc_mxgdNjxAdel5A_OBjPjmqNBIj1Q
p137
sg18
V/v1/stats/player_history/EUW1/31118622
p138
sg20
I582
sg21
(dp139
g23
V9.23.1
p140
sg25
VOrianna
p141
sg27
V61
p142
sg29
VOrianna
p143
sg31
Vthe Lady of Clockwork
p144
sg33
VOnce a curious girl of flesh and blood, Orianna is now a technological marvel comprised entirely of clockwork. She became gravely ill after an accident in the lower districts of Zaun, and her failing body had to be replaced with exquisite artifice...
p145
sg35
(dp146
g37
I4
sg38
I3
sg39
I9
sg40
I7
ssg41
(dp147
g43
VOrianna.png
p148
sg45
Vchampion2.png
p149
sg47
Vchampion
p150
sg49
I144
sg50
I96
sg51
I48
sg52
I48
ssg53
(lp151
VMage
p152
aVSupport
p153
asg56
VMana
p154
sg58
(dp155
g60
I530
sg61
I91
sg62
I418
sg63
I25
sg64
I325
sg65
F17.04
sg66
I3
sg67
I26
sg68
F0.5
sg69
I525
sg70
I7
sg71
F0.55
sg72
I8
sg73
F0.8
sg74
I0
sg75
I0
sg76
F40.368
sg77
F2.6
sg78
F3.5
sg79
F0.658
ssssa(dp156
g3
I5
sg4
(dp157
g6
VEUW1
p158
sg8
VyWVB8agZ9sCcLrPypNf8FsuuTTfIOK6zjfVYxdO14iIrog
p159
sg10
VStonesZ
p160
sg12
VEkuPxX3A4Dh_a4ypSoQNHnv6S2j0CpKO-I7SGOrvLChNKec
p161
sg14
VEUW1
p162
sg16
VyWVB8agZ9sCcLrPypNf8FsuuTTfIOK6zjfVYxdO14iIrog
p163
sg18
V/v1/stats/player_history/EUW1/31926048
p164
sg20
I3151
sg21
(dp165
g23
V9.23.1
p166
sg25
VVeigar
p167
sg27
V45
p168
sg29
VVeigar
p169
sg31
Vthe Tiny Master of Evil
p170
sg33
VAn enthusiastic master of dark sorcery, Veigar has embraced powers that few mortals dare approach. As a free-spirited inhabitant of Bandle City, he longed to push beyond the limitations of yordle magic, and turned instead to arcane texts that had been...
p171
sg35
(dp172
g37
I2
sg38
I2
sg39
I10
sg40
I7
ssg41
(dp173
g43
VVeigar.png
p174
sg45
Vchampion4.png
p175
sg47
Vchampion
p176
sg49
I336
sg50
I0
sg51
I48
sg52
I48
ssg53
(lp177
VMage
p178
asg56
VMana
p179
sg58
(dp180
g60
I505
sg61
I94
sg62
I490
sg63
I26
sg64
I340
sg65
F22.55
sg66
F3.75
sg67
I30
sg68
F0.5
sg69
I550
sg70
F6.5
sg71
F0.6
sg72
I8
sg73
F0.8
sg74
I0
sg75
I0
sg76
F50.71
sg77
F2.625
sg78
F2.24
sg79
F0.625
ssssa(dp181
g3
I6
sg4
(dp182
g6
VEUW1
p183
sg8
VV7x-smAs85o51Dn_XNVebnn1ucjkkDNrTfw356Y4kK2oicw
p184
sg10
VLH Roku
p185
sg12
VcrQ8VednB1plyN5f5cED5H0astxXGvc97cFQS8puz5Ay7dU
p186
sg14
VEUW1
p187
sg16
VV7x-smAs85o51Dn_XNVebnn1ucjkkDNrTfw356Y4kK2oicw
p188
sg18
V/v1/stats/player_history/EUW1/201178640
p189
sg20
I4217
sg21
(dp190
g23
V9.23.1
p191
sg25
VOrnn
p192
sg27
V516
p193
sg29
VOrnn
p194
sg31
VThe Fire below the Mountain
p195
sg33
VOrnn is the Freljordian spirit of forging and craftsmanship. He works in the solitude of a massive smithy, hammered out from the lava caverns beneath the volcano Hearth-Home. There he stokes bubbling cauldrons of molten rock to purify ores and fashion...
p196
sg35
(dp197
g37
I5
sg38
I9
sg39
I3
sg40
I5
ssg41
(dp198
g43
VOrnn.png
p199
sg45
Vchampion2.png
p200
sg47
Vchampion
p201
sg49
I192
sg50
I96
sg51
I48
sg52
I48
ssg53
(lp202
VTank
p203
aVFighter
p204
asg56
VMana
p205
sg58
(dp206
g60
I590
sg61
I95
sg62
F340.6
sg63
I45
sg64
I335
sg65
I36
sg66
I4
sg67
F32.1
sg68
F1.25
sg69
I175
sg70
I9
sg71
F0.9
sg72
F8.01
sg73
F0.6
sg74
I0
sg75
I0
sg76
I69
sg77
F3.5
sg78
I2
sg79
F0.625
ssssa(dp207
g3
I7
sg4
(dp208
g6
VEUW1
p209
sg8
Vy_49RoWKA270FLmgnvnD_5fXYncC9smephFlJkQPXNVfM3g
p210
sg10
VLotusInTheDark
p211
sg12
VD5mCj7-8xzWPidEuwzt3lfZQTowEM-0hS37yWmBzK9alLTw
p212
sg14
VEUW1
p213
sg16
Vy_49RoWKA270FLmgnvnD_5fXYncC9smephFlJkQPXNVfM3g
p214
sg18
V/v1/stats/player_history/EUW1/223688538
p215
sg20
I4462
sg21
(dp216
g23
V9.23.1
p217
sg25
VVarus
p218
sg27
V110
p219
sg29
VVarus
p220
sg31
Vthe Arrow of Retribution
p221
sg33
VOne of the ancient darkin, Varus was a deadly killer who loved to torment his foes, driving them almost to insanity before delivering the killing arrow. He was imprisoned at the end of the Great Darkin War, but escaped centuries later in the remade...
p222
sg35
(dp223
g37
I7
sg38
I3
sg39
I4
sg40
I2
ssg41
(dp224
g43
VVarus.png
p225
sg45
Vchampion4.png
p226
sg47
Vchampion
p227
sg49
I240
sg50
I0
sg51
I48
sg52
I48
ssg53
(lp228
VMarksman
p229
aVMage
p230
asg56
VMana
p231
sg58
(dp232
g60
I500
sg61
I89
sg62
I360
sg63
I33
sg64
I330
sg65
I27
sg66
F3.4
sg67
I30
sg68
F0.5
sg69
I575
sg70
F3.5
sg71
F0.55
sg72
I8
sg73
F0.8
sg74
I0
sg75
I0
sg76
I61
sg77
F3.11
sg78
I3
sg79
F0.658
ssssa(dp233
g3
I8
sg4
(dp234
g6
VEUW1
p235
sg8
VsdsiBDAaBnTXd-5MTQ90x7Ng6N8CpH5_GYIyb2o8nF9QxZo
p236
sg10
VScary Melody
p237
sg12
VF1wnO7p9bn1wi-Obe473n7Jhd0rHp7luDL86I8sniGkp5rk
p238
sg14
VEUW1
p239
sg16
VsdsiBDAaBnTXd-5MTQ90x7Ng6N8CpH5_GYIyb2o8nF9QxZo
p240
sg18
V/v1/stats/player_history/EUW1/201550602
p241
sg20
I4389
sg21
(dp242
g23
V9.23.1
p243
sg25
VCamille
p244
sg27
V164
p245
sg29
VCamille
p246
sg31
Vthe Steel Shadow
p247
sg33
VWeaponized to operate outside the boundaries of the law, Camille is the Principal Intelligencer of Clan Ferros\u2014an elegant and elite agent who ensures the Piltover machine and its Zaunite underbelly runs smoothly. Adaptable and precise, she views sloppy...
p248
sg35
(dp249
g37
I8
sg38
I6
sg39
I3
sg40
I4
ssg41
(dp250
g43
VCamille.png
p251
sg45
Vchampion0.png
p252
sg47
Vchampion
p253
sg49
I240
sg50
I48
sg51
I48
sg52
I48
ssg53
(lp254
VFighter
p255
aVTank
p256
asg56
VMana
p257
sg58
(dp258
g60
F575.6
sg61
I85
sg62
F338.8
sg63
I32
sg64
I340
sg65
I35
sg66
F3.8
sg67
F32.1
sg68
F1.25
sg69
I125
sg70
F8.5
sg71
F0.8
sg72
F8.15
sg73
F0.75
sg74
I0
sg75
I0
sg76
I68
sg77
F3.5
sg78
F2.5
sg79
F0.644
ssssa(dp259
g3
I9
sg4
(dp260
g6
VEUW1
p261
sg8
VehkGLfNgmMe9j0pRmv0y8yq5MQWyCgCVpux6pbUPS_DR4ds
p262
sg10
VScary Zoe
p263
sg12
VAezhf1QsOfCEMUdnNV6nuF0BAbOB3MgepcMg7HWD3emdKS8
p264
sg14
VEUW1
p265
sg16
VehkGLfNgmMe9j0pRmv0y8yq5MQWyCgCVpux6pbUPS_DR4ds
p266
sg18
V/v1/stats/player_history/EUW1/221067046
p267
sg20
I3591
sg21
(dp268
g23
V9.23.1
p269
sg25
VKatarina
p270
sg27
V55
p271
sg29
VKatarina
p272
sg31
Vthe Sinister Blade
p273
sg33
VDecisive in judgment and lethal in combat, Katarina is a Noxian assassin of the highest caliber. Eldest daughter to the legendary General Du Couteau, she made her talents known with swift kills against unsuspecting enemies. Her fiery ambition has driven...
p274
sg35
(dp275
g37
I4
sg38
I3
sg39
I9
sg40
I8
ssg41
(dp276
g43
VKatarina.png
p277
sg45
Vchampion1.png
p278
sg47
Vchampion
p279
sg49
I96
sg50
I96
sg51
I48
sg52
I48
ssg53
(lp280
VAssassin
p281
aVMage
p282
asg56
VNone
p283
sg58
(dp284
g60
I602
sg61
I94
sg62
I0
sg63
I0
sg64
I340
sg65
F27.88
sg66
F3.5
sg67
F32.1
sg68
F1.25
sg69
I125
sg70
F7.5
sg71
F0.7
sg72
I0
sg73
I0
sg74
I0
sg75
I0
sg76
I58
sg77
F3.2
sg78
F2.74
sg79
F0.658
ssssa(dp285
g3
I10
sg4
(dp286
g6
VEUN1
p287
sg8
VgfO04N_v7Aca2t_deTLlsaUN0UNm8NsrpW7wrtYs39U-Vw
p288
sg10
VShe Charmed Me
p289
sg12
Vn8FJUO-_VG3c8AosBVg03dqKWACmTin0yKvErfBj_xhl9_w
p290
sg14
VEUW1
p291
sg16
Vx7mKDBqMSrLdcmeDDV6Slkjt7cTSEcNxBW6CnjFRpJ76hCs
p292
sg18
V/v1/stats/player_history/EUN1/35375915
p293
sg20
I4072
sg21
(dp294
g23
V9.23.1
p295
sg25
VKennen
p296
sg27
V85
p297
sg29
VKennen
p298
sg31
Vthe Heart of the Tempest
p299
sg33
VMore than just the lightning-quick enforcer of Ionian balance, Kennen is the only yordle member of the Kinkou. Despite his small, furry stature, he is eager to take on any threat with a whirling storm of shuriken and boundless enthusiasm. Alongside his...
p300
sg35
(dp301
g37
I6
sg38
I4
sg39
I7
sg40
I4
ssg41
(dp302
g43
VKennen.png
p303
sg45
Vchampion1.png
p304
sg47
Vchampion
p305
sg49
I240
sg50
I96
sg51
I48
sg52
I48
ssg53
(lp306
VMage
p307
aVMarksman
p308
asg56
VEnergy
p309
sg58
(dp310
g60
I541
sg61
I84
sg62
I200
sg63
I0
sg64
I335
sg65
I29
sg66
F3.75
sg67
I30
sg68
F0.5
sg69
I550
sg70
F5.5
sg71
F0.65
sg72
I50
sg73
I0
sg74
I0
sg75
I0
sg76
I48
sg77
F3.75
sg78
F3.4
sg79
F0.625
ssssas.